target datalayout = "e-m:e-p270:32:32-p271:32:32-p272:64:64-i64:64-i128:128-f80:128-n8:16:32:64-S128"
target triple = "x86_64-pc-linux-gnu"

%struct.evp_keymgmt_st = type { i32, i32, i32, ptr, ptr, ptr, %struct.CRYPTO_REF_COUNT, ptr, ptr, ptr, ptr, ptr, ptr, ptr, ptr, ptr, ptr, ptr, ptr, ptr, ptr, ptr, ptr, ptr, ptr, ptr, ptr, ptr, ptr, ptr, ptr, ptr, ptr }
%struct.CRYPTO_REF_COUNT = type { i32 }

; Function Attrs: nounwind uwtable
define void @evp_keymgmt_gen_cleanup(ptr noundef %0, ptr noundef %1) #0 {
  %3 = alloca ptr, align 8
  %4 = alloca ptr, align 8
  store ptr %0, ptr %3, align 8, !tbaa !18
  store ptr %1, ptr %4, align 8, !tbaa !58
  %5 = load ptr, ptr %3, align 8, !tbaa !18
  %6 = getelementptr inbounds nuw %struct.evp_keymgmt_st, ptr %5, i32 0, i32 20
  %7 = load ptr, ptr %6, align 8, !tbaa !36
  %8 = icmp ne ptr %7, null
  br i1 %8, label %9, label %14

9:                                                ; preds = %2
  %10 = load ptr, ptr %3, align 8, !tbaa !18
  %11 = getelementptr inbounds nuw %struct.evp_keymgmt_st, ptr %10, i32 0, i32 20
  %12 = load ptr, ptr %11, align 8, !tbaa !36
  %13 = load ptr, ptr %4, align 8, !tbaa !58
  call void %12(ptr noundef %13)
  br label %14

14:                                               ; preds = %9, %2
  ret void
}